; Function Attrs: mustprogress nounwind uwtable
define internal fastcc noundef ptr @_ZL21upgradeX86MaskedShiftRN4llvm9IRBuilderINS_14ConstantFolderENS_24IRBuilderDefaultInserterEEERNS_8CallBaseEj(ptr noundef nonnull align 8 dereferenceable(144) %0, ptr noundef nonnull align 8 dereferenceable(88) %1, i32 noundef %2) unnamed_addr #0 {
  %4 = alloca [2 x ptr], align 8
  %5 = alloca %"class.llvm::Twine", align 8
  %6 = tail call noundef ptr @_ZNK4llvm11Instruction9getModuleEv(ptr noundef nonnull align 8 dereferenceable(72) %1) #20
  %7 = tail call noundef ptr @_ZN4llvm9Intrinsic14getDeclarationEPNS_6ModuleEjNS_8ArrayRefIPNS_4TypeEEE(ptr noundef %6, i32 noundef %2, ptr null, i64 0) #20
  %.not.i = icmp eq ptr %7, null
  br i1 %.not.i, label %_ZN4llvm14FunctionCalleeC2INS_8FunctionEMS2_KFPNS_12FunctionTypeEvEEEPT_.exit, label %8

8:                                                ; preds = %3
  %9 = getelementptr inbounds nuw i8, ptr %7, i64 24
  %10 = load ptr, ptr %9, align 8
  br label %_ZN4llvm14FunctionCalleeC2INS_8FunctionEMS2_KFPNS_12FunctionTypeEvEEEPT_.exit

_ZN4llvm14FunctionCalleeC2INS_8FunctionEMS2_KFPNS_12FunctionTypeEvEEEPT_.exit: ; preds = %3, %8
  %11 = phi ptr [ %10, %8 ], [ null, %3 ]
  %12 = getelementptr inbounds nuw i8, ptr %1, i64 4
  %13 = load i32, ptr %12, align 4
  %14 = and i32 %13, 134217727
  %15 = zext nneg i32 %14 to i64
  %16 = sub nsw i64 0, %15
  %17 = getelementptr inbounds %"class.llvm::Use", ptr %1, i64 %16
  %18 = load ptr, ptr %17, align 8
  store ptr %18, ptr %4, align 8
  %19 = getelementptr inbounds i8, ptr %4, i64 8
  %20 = getelementptr inbounds i8, ptr %17, i64 32
  %21 = load ptr, ptr %20, align 8
  store ptr %21, ptr %19, align 8
  %22 = getelementptr inbounds nuw i8, ptr %5, i64 32
  store i16 257, ptr %22, align 8
  %23 = call noundef ptr @_ZN4llvm13IRBuilderBase10CreateCallEPNS_12FunctionTypeEPNS_5ValueENS_8ArrayRefIS4_EERKNS_5TwineEPNS_6MDNodeE(ptr noundef nonnull align 8 dereferenceable(128) %0, ptr noundef %11, ptr noundef %7, ptr nonnull %4, i64 2, ptr noundef nonnull align 8 dereferenceable(34) %5, ptr noundef null)
  %24 = load i32, ptr %12, align 4
  %25 = and i32 %24, 134217727
  %26 = zext nneg i32 %25 to i64
  %27 = sub nsw i64 0, %26
  %28 = getelementptr inbounds %"class.llvm::Use", ptr %1, i64 %27
  %29 = getelementptr inbounds i8, ptr %28, i64 96
  %30 = load ptr, ptr %29, align 8
  %31 = getelementptr inbounds i8, ptr %28, i64 64
  %32 = load ptr, ptr %31, align 8
  %33 = call fastcc noundef ptr @_ZL13emitX86SelectRN4llvm9IRBuilderINS_14ConstantFolderENS_24IRBuilderDefaultInserterEEEPNS_5ValueES6_S6_(ptr noundef nonnull align 8 dereferenceable(144) %0, ptr noundef %30, ptr noundef %23, ptr noundef %32)
  ret ptr %33
}